target datalayout = "e-m:e-p270:32:32-p271:32:32-p272:64:64-i64:64-i128:128-f80:128-n8:16:32:64-S128"
target triple = "x86_64-pc-linux-gnu"

%"class.llvm::SmallVectorBase" = type { ptr, i32, i32 }
%"class.clang::QualType" = type { %"class.llvm::PointerIntPair" }
%"class.llvm::PointerIntPair" = type { %"struct.llvm::detail::PunnedPointer" }
%"struct.llvm::detail::PunnedPointer" = type { [8 x i8] }
%"class.clang::SourceLocation" = type { i32 }
%"class.llvm::IRBuilderBase" = type { %"class.llvm::SmallVector.6", ptr, %"class.llvm::ilist_iterator_w_bits", ptr, ptr, ptr, ptr, %"class.llvm::FastMathFlags", i8, i8, i8, %"class.llvm::ArrayRef" }
%"class.llvm::SmallVector.6" = type { %"class.llvm::SmallVectorImpl.7", %"struct.llvm::SmallVectorStorage.10" }
%"class.llvm::SmallVectorImpl.7" = type { %"class.llvm::SmallVectorTemplateBase.8" }
%"class.llvm::SmallVectorTemplateBase.8" = type { %"class.llvm::SmallVectorTemplateCommon.9" }
%"class.llvm::SmallVectorTemplateCommon.9" = type { %"class.llvm::SmallVectorBase" }
%"struct.llvm::SmallVectorStorage.10" = type { [32 x i8] }
%"class.llvm::ilist_iterator_w_bits" = type <{ ptr, i8, i8, [6 x i8] }>
%"class.llvm::FastMathFlags" = type { i32 }
%"class.llvm::ArrayRef" = type { ptr, i64 }
%"class.clang::Expr" = type { %"class.clang::ValueStmt", %"class.clang::QualType" }
%"class.clang::ValueStmt" = type { %"class.clang::Stmt" }
%"class.clang::Stmt" = type { %union.anon.198 }
%union.anon.198 = type { %"class.clang::Stmt::PseudoObjectExprBitfields" }
%"class.clang::Stmt::PseudoObjectExprBitfields" = type { i64 }
%"class.(anonymous namespace)::ScalarExprEmitter" = type { ptr, ptr, i8, ptr }
%"class.clang::ExpressionTraitExpr" = type { %"class.clang::Expr", i32, %"class.clang::SourceLocation", %"class.clang::SourceLocation", ptr }

; Function Attrs: mustprogress nounwind uwtable
define linkonce_odr hidden noundef zeroext i1 @_ZNK5clang19ExpressionTraitExpr8getValueEv(ptr noundef nonnull align 8 dereferenceable(40) %0) #0 comdat align 2 {
  %2 = alloca ptr, align 8
  store ptr %0, ptr %2, align 8
  %3 = load ptr, ptr %2, align 8
  %4 = getelementptr inbounds nuw %"class.clang::ExpressionTraitExpr", ptr %3, i32 0, i32 1
  %5 = load i32, ptr %4, align 8
  %6 = lshr i32 %5, 31
  %7 = icmp ne i32 %6, 0
  ret i1 %7
}

; Function Attrs: mustprogress nounwind uwtable
define linkonce_odr hidden noundef ptr @_ZN4llvm13IRBuilderBase9getInt1TyEv(ptr noundef nonnull align 8 dereferenceable(128) %0) #0 comdat align 2 {
  %2 = alloca ptr, align 8
  store ptr %0, ptr %2, align 8
  %3 = load ptr, ptr %2, align 8
  %4 = getelementptr inbounds nuw %"class.llvm::IRBuilderBase", ptr %3, i32 0, i32 3
  %5 = load ptr, ptr %4, align 8
  %6 = call noundef ptr @_ZN4llvm4Type9getInt1TyERNS_11LLVMContextE(ptr noundef nonnull align 8 dereferenceable(8) %5)
  ret ptr %6
}

; Function Attrs: mustprogress nounwind uwtable
define internal noundef ptr @_ZN12_GLOBAL__N_117ScalarExprEmitter24VisitExpressionTraitExprEPKN5clang19ExpressionTraitExprE(ptr noundef nonnull align 8 dereferenceable(32) %0, ptr noundef %1) #0 align 2 {
  %3 = alloca ptr, align 8
  %4 = alloca ptr, align 8
  store ptr %0, ptr %3, align 8
  store ptr %1, ptr %4, align 8
  %5 = load ptr, ptr %3, align 8
  %6 = getelementptr inbounds nuw %"class.(anonymous namespace)::ScalarExprEmitter", ptr %5, i32 0, i32 1
  %7 = load ptr, ptr %6, align 8
  %8 = call noundef ptr @_ZN4llvm13IRBuilderBase9getInt1TyEv(ptr noundef nonnull align 8 dereferenceable(128) %7)
  %9 = load ptr, ptr %4, align 8
  %10 = call noundef zeroext i1 @_ZNK5clang19ExpressionTraitExpr8getValueEv(ptr noundef nonnull align 8 dereferenceable(40) %9)
  %11 = zext i1 %10 to i64
  %12 = call noundef ptr @_ZN4llvm11ConstantInt3getEPNS_11IntegerTypeEmb(ptr noundef %8, i64 noundef %11, i1 noundef zeroext false)
  ret ptr %12
}