; Function Attrs: mustprogress nounwind uwtable
define internal fastcc noundef ptr @_ZN12_GLOBAL__N_117ScalarExprEmitter24VisitExpressionTraitExprEPKN5clang19ExpressionTraitExprE(ptr nonnull %.8.val.72.val, ptr noundef readonly captures(none) %0) unnamed_addr #0 align 2 {
  %2 = tail call noundef ptr @_ZN4llvm4Type9getInt1TyERNS_11LLVMContextE(ptr noundef nonnull align 8 dereferenceable(8) %.8.val.72.val) #19
  %3 = getelementptr inbounds nuw i8, ptr %0, i64 16
  %4 = load i32, ptr %3, align 8
  %.lobit = lshr i32 %4, 31
  %5 = zext nneg i32 %.lobit to i64
  %6 = tail call noundef ptr @_ZN4llvm11ConstantInt3getEPNS_11IntegerTypeEmb(ptr noundef %2, i64 noundef %5, i1 noundef zeroext false) #19
  ret ptr %6
}